target datalayout = "e-m:e-p270:32:32-p271:32:32-p272:64:64-i64:64-i128:128-f80:128-n8:16:32:64-S128"
target triple = "x86_64-unknown-linux-gnu"

%"class.icu_75::DictionaryBreakEngine" = type { %"class.icu_75::LanguageBreakEngine", %"class.icu_75::UnicodeSet" }
%"class.icu_75::LanguageBreakEngine" = type { %"class.icu_75::UObject" }
%"class.icu_75::UObject" = type { ptr }
%"class.icu_75::UnicodeSet" = type <{ %"class.icu_75::UnicodeFilter", ptr, i32, i32, i8, [7 x i8], ptr, ptr, i32, [4 x i8], ptr, i32, [4 x i8], ptr, ptr, [25 x i32], [4 x i8] }>
%"class.icu_75::UnicodeFilter" = type { %"class.icu_75::UnicodeFunctor", %"class.icu_75::UnicodeMatcher" }
%"class.icu_75::UnicodeFunctor" = type { %"class.icu_75::UObject" }
%"class.icu_75::UnicodeMatcher" = type { ptr }
%"class.icu_75::KhmerBreakEngine" = type { %"class.icu_75::DictionaryBreakEngine", %"class.icu_75::UnicodeSet", %"class.icu_75::UnicodeSet", %"class.icu_75::UnicodeSet", ptr }

; Function Attrs: mustprogress nounwind uwtable
define void @_ZN6icu_7521DictionaryBreakEngineD2Ev(ptr noundef nonnull align 8 dereferenceable(208) %this) unnamed_addr #3 align 2 {
entry:
  %this.addr = alloca ptr, align 8
  store ptr %this, ptr %this.addr, align 8
  %this1 = load ptr, ptr %this.addr, align 8
  store ptr getelementptr inbounds ({ [9 x ptr] }, ptr @_ZTVN6icu_7521DictionaryBreakEngineE, i32 0, i32 0, i32 2), ptr %this1, align 8
  %fSet = getelementptr inbounds %"class.icu_75::DictionaryBreakEngine", ptr %this1, i32 0, i32 1
  call void @_ZN6icu_7510UnicodeSetD1Ev(ptr noundef nonnull align 8 dereferenceable(200) %fSet) #7
  call void @_ZN6icu_7519LanguageBreakEngineD2Ev(ptr noundef nonnull align 8 dereferenceable(8) %this1) #7
  ret void
}

; Function Attrs: mustprogress nounwind uwtable
define void @_ZN6icu_7516KhmerBreakEngineD2Ev(ptr noundef nonnull align 8 dereferenceable(816) %this) unnamed_addr #3 align 2 {
entry:
  %this.addr = alloca ptr, align 8
  store ptr %this, ptr %this.addr, align 8
  %this1 = load ptr, ptr %this.addr, align 8
  store ptr getelementptr inbounds ({ [9 x ptr] }, ptr @_ZTVN6icu_7516KhmerBreakEngineE, i32 0, i32 0, i32 2), ptr %this1, align 8
  %fDictionary = getelementptr inbounds %"class.icu_75::KhmerBreakEngine", ptr %this1, i32 0, i32 4
  %0 = load ptr, ptr %fDictionary, align 8
  %isnull = icmp eq ptr %0, null
  br i1 %isnull, label %delete.end, label %delete.notnull

delete.notnull:                                   ; preds = %entry
  %vtable = load ptr, ptr %0, align 8
  %vfn = getelementptr inbounds ptr, ptr %vtable, i64 1
  %1 = load ptr, ptr %vfn, align 8
  call void %1(ptr noundef nonnull align 8 dereferenceable(8) %0) #7
  br label %delete.end

delete.end:                                       ; preds = %delete.notnull, %entry
  %fMarkSet = getelementptr inbounds %"class.icu_75::KhmerBreakEngine", ptr %this1, i32 0, i32 3
  call void @_ZN6icu_7510UnicodeSetD1Ev(ptr noundef nonnull align 8 dereferenceable(200) %fMarkSet) #7
  %fBeginWordSet = getelementptr inbounds %"class.icu_75::KhmerBreakEngine", ptr %this1, i32 0, i32 2
  call void @_ZN6icu_7510UnicodeSetD1Ev(ptr noundef nonnull align 8 dereferenceable(200) %fBeginWordSet) #7
  %fEndWordSet = getelementptr inbounds %"class.icu_75::KhmerBreakEngine", ptr %this1, i32 0, i32 1
  call void @_ZN6icu_7510UnicodeSetD1Ev(ptr noundef nonnull align 8 dereferenceable(200) %fEndWordSet) #7
  call void @_ZN6icu_7521DictionaryBreakEngineD2Ev(ptr noundef nonnull align 8 dereferenceable(208) %this1) #7
  ret void
}